target datalayout = "e-m:e-p270:32:32-p271:32:32-p272:64:64-i64:64-i128:128-f80:128-n8:16:32:64-S128"
target triple = "x86_64-pc-linux-gnu"

%struct.ossl_namemap_st = type { i8, ptr, ptr, ptr, i32 }

; Function Attrs: nounwind uwtable
define i32 @ossl_namemap_add_name(ptr noundef %0, i32 noundef %1, ptr noundef %2) #0 {
  %4 = alloca i32, align 4
  %5 = alloca ptr, align 8
  %6 = alloca i32, align 4
  %7 = alloca ptr, align 8
  %8 = alloca i32, align 4
  %9 = alloca i32, align 4
  store ptr %0, ptr %5, align 8, !tbaa !8
  store i32 %1, ptr %6, align 4, !tbaa !21
  store ptr %2, ptr %7, align 8, !tbaa !27
  call void @llvm.lifetime.start.p0(i64 4, ptr %8) #7
  %10 = load ptr, ptr %5, align 8, !tbaa !8
  %11 = icmp eq ptr %10, null
  br i1 %11, label %12, label %14

12:                                               ; preds = %3
  %13 = call ptr @ossl_namemap_stored(ptr noundef null)
  store ptr %13, ptr %5, align 8, !tbaa !8
  br label %14

14:                                               ; preds = %12, %3
  %15 = load ptr, ptr %7, align 8, !tbaa !27
  %16 = icmp eq ptr %15, null
  br i1 %16, label %25, label %17

17:                                               ; preds = %14
  %18 = load ptr, ptr %7, align 8, !tbaa !27
  %19 = load i8, ptr %18, align 1, !tbaa !41
  %20 = sext i8 %19 to i32
  %21 = icmp eq i32 %20, 0
  br i1 %21, label %25, label %22

22:                                               ; preds = %17
  %23 = load ptr, ptr %5, align 8, !tbaa !8
  %24 = icmp eq ptr %23, null
  br i1 %24, label %25, label %26

25:                                               ; preds = %22, %17, %14
  store i32 0, ptr %4, align 4
  store i32 1, ptr %9, align 4
  br label %43

26:                                               ; preds = %22
  %27 = load ptr, ptr %5, align 8, !tbaa !8
  %28 = getelementptr inbounds nuw %struct.ossl_namemap_st, ptr %27, i32 0, i32 2
  %29 = load ptr, ptr %28, align 8, !tbaa !14
  %30 = call i32 @CRYPTO_THREAD_write_lock(ptr noundef %29)
  %31 = icmp ne i32 %30, 0
  br i1 %31, label %33, label %32

32:                                               ; preds = %26
  store i32 0, ptr %4, align 4
  store i32 1, ptr %9, align 4
  br label %43

33:                                               ; preds = %26
  %34 = load ptr, ptr %5, align 8, !tbaa !8
  %35 = load i32, ptr %6, align 4, !tbaa !21
  %36 = load ptr, ptr %7, align 8, !tbaa !27
  %37 = call i32 @namemap_add_name(ptr noundef %34, i32 noundef %35, ptr noundef %36)
  store i32 %37, ptr %8, align 4, !tbaa !21
  %38 = load ptr, ptr %5, align 8, !tbaa !8
  %39 = getelementptr inbounds nuw %struct.ossl_namemap_st, ptr %38, i32 0, i32 2
  %40 = load ptr, ptr %39, align 8, !tbaa !14
  %41 = call i32 @CRYPTO_THREAD_unlock(ptr noundef %40)
  %42 = load i32, ptr %8, align 4, !tbaa !21
  store i32 %42, ptr %4, align 4
  store i32 1, ptr %9, align 4
  br label %43

43:                                               ; preds = %33, %32, %25
  call void @llvm.lifetime.end.p0(i64 4, ptr %8) #7
  %44 = load i32, ptr %4, align 4
  ret i32 %44
}