; Function Attrs: nounwind uwtable
define i32 @ossl_namemap_add_name(ptr noundef captures(address) %0, i32 noundef %1, ptr noundef %2) local_unnamed_addr #0 {
  %4 = icmp eq ptr %0, null
  br i1 %4, label %5, label %7

5:                                                ; preds = %3
  %6 = tail call ptr @ossl_namemap_stored(ptr noundef null)
  br label %7

7:                                                ; preds = %5, %3
  %.011 = phi ptr [ %6, %5 ], [ %0, %3 ]
  %8 = icmp eq ptr %2, null
  br i1 %8, label %21, label %9

9:                                                ; preds = %7
  %10 = load i8, ptr %2, align 1, !tbaa !25
  %11 = icmp eq i8 %10, 0
  %12 = icmp eq ptr %.011, null
  %or.cond = select i1 %11, i1 true, i1 %12
  br i1 %or.cond, label %21, label %13

13:                                               ; preds = %9
  %14 = getelementptr inbounds nuw i8, ptr %.011, i64 16
  %15 = load ptr, ptr %14, align 8, !tbaa !11
  %16 = tail call i32 @CRYPTO_THREAD_write_lock(ptr noundef %15) #6
  %.not = icmp eq i32 %16, 0
  br i1 %.not, label %21, label %17

17:                                               ; preds = %13
  %18 = tail call fastcc i32 @namemap_add_name(ptr noundef %.011, i32 noundef %1, ptr noundef %2)
  %19 = load ptr, ptr %14, align 8, !tbaa !11
  %20 = tail call i32 @CRYPTO_THREAD_unlock(ptr noundef %19) #6
  br label %21

21:                                               ; preds = %13, %7, %9, %17
  %.0 = phi i32 [ %18, %17 ], [ 0, %9 ], [ 0, %7 ], [ 0, %13 ]
  ret i32 %.0
}